target datalayout = "e-m:e-p270:32:32-p271:32:32-p272:64:64-i64:64-i128:128-f80:128-n8:16:32:64-S128"
target triple = "x86_64-pc-linux-gnu"

%"class.icu_77::UObject" = type { ptr }
%"class.icu_77::UnicodeString" = type { %"class.icu_77::Replaceable", %"union.icu_77::UnicodeString::StackBufferOrFields" }
%"class.icu_77::Replaceable" = type { %"class.icu_77::UObject" }
%"union.icu_77::UnicodeString::StackBufferOrFields" = type { %struct.anon.0, [32 x i8] }
%struct.anon.0 = type { i16, i32, i32, ptr }
%struct.anon = type { i16, [27 x i16] }

@_ZTVN6icu_777UObjectE = available_externally unnamed_addr constant { [5 x ptr] } { [5 x ptr] [ptr null, ptr @_ZTIN6icu_777UObjectE, ptr @_ZN6icu_777UObjectD1Ev, ptr @_ZN6icu_777UObjectD0Ev, ptr @_ZNK6icu_777UObject17getDynamicClassIDEv] }, align 8

; Function Attrs: inlinehint mustprogress nounwind uwtable
define linkonce_odr void @_ZN6icu_777UObjectC2Ev(ptr noundef nonnull align 8 dereferenceable(8) %0) unnamed_addr #2 comdat align 2 {
  %2 = alloca ptr, align 8
  store ptr %0, ptr %2, align 8, !tbaa !48
  %3 = load ptr, ptr %2, align 8
  store ptr getelementptr inbounds inrange(-16, 24) ({ [5 x ptr] }, ptr @_ZTVN6icu_777UObjectE, i32 0, i32 0, i32 2), ptr %3, align 8, !tbaa !25
  ret void
}

; Function Attrs: inlinehint mustprogress nounwind uwtable
define linkonce_odr void @_ZN6icu_7711ReplaceableC2Ev(ptr noundef nonnull align 8 dereferenceable(8) %0) unnamed_addr #2 comdat align 2 {
  %2 = alloca ptr, align 8
  store ptr %0, ptr %2, align 8, !tbaa !218
  %3 = load ptr, ptr %2, align 8
  call void @_ZN6icu_777UObjectC2Ev(ptr noundef nonnull align 8 dereferenceable(8) %3) #14
  store ptr getelementptr inbounds inrange(-16, 88) ({ [13 x ptr] }, ptr @_ZTVN6icu_7711ReplaceableE, i32 0, i32 0, i32 2), ptr %3, align 8, !tbaa !25
  ret void
}

; Function Attrs: inlinehint mustprogress uwtable
define linkonce_odr void @_ZN6icu_7713UnicodeStringC2Ev(ptr noundef nonnull align 8 dereferenceable(64) %0) unnamed_addr #3 comdat align 2 {
  %2 = alloca ptr, align 8
  store ptr %0, ptr %2, align 8, !tbaa !50
  %3 = load ptr, ptr %2, align 8
  call void @_ZN6icu_7711ReplaceableC2Ev(ptr noundef nonnull align 8 dereferenceable(8) %3)
  store ptr getelementptr inbounds inrange(-16, 88) ({ [13 x ptr] }, ptr @_ZTVN6icu_7713UnicodeStringE, i32 0, i32 0, i32 2), ptr %3, align 8, !tbaa !25
  %4 = getelementptr inbounds nuw %"class.icu_77::UnicodeString", ptr %3, i32 0, i32 1
  %5 = getelementptr inbounds nuw %struct.anon, ptr %4, i32 0, i32 0
  store i16 2, ptr %5, align 8, !tbaa !51
  ret void
}

; Function Attrs: inlinehint mustprogress uwtable
define internal noundef ptr @_ZN6icu_77L21newUnicodeStringArrayEm(i64 noundef %0) #3 personality ptr @__gxx_personality_v0 {
  %2 = alloca i64, align 8
  %3 = alloca ptr, align 8
  %4 = alloca i64, align 8
  %5 = alloca i1, align 1
  %6 = alloca ptr, align 8
  %7 = alloca ptr, align 8
  %8 = alloca i1, align 1
  %9 = alloca ptr, align 8
  %10 = alloca i32, align 4
  store i64 %0, ptr %2, align 8, !tbaa !18
  %11 = load i64, ptr %2, align 8, !tbaa !18
  %12 = icmp ne i64 %11, 0
  br i1 %12, label %13, label %15

13:                                               ; preds = %1
  %14 = load i64, ptr %2, align 8, !tbaa !18
  br label %16

15:                                               ; preds = %1
  br label %16

16:                                               ; preds = %15, %13
  %17 = phi i64 [ %14, %13 ], [ 1, %15 ]
  %18 = call { i64, i1 } @llvm.umul.with.overflow.i64(i64 %17, i64 64)
  %19 = extractvalue { i64, i1 } %18, 1
  %20 = extractvalue { i64, i1 } %18, 0
  %21 = call { i64, i1 } @llvm.uadd.with.overflow.i64(i64 %20, i64 8)
  %22 = extractvalue { i64, i1 } %21, 1
  %23 = or i1 %19, %22
  %24 = extractvalue { i64, i1 } %21, 0
  %25 = select i1 %23, i64 -1, i64 %24
  %26 = call noundef ptr @_ZN6icu_777UMemorynaEm(i64 noundef %25) #14
  %27 = icmp eq ptr %26, null
  store i1 false, ptr %5, align 1
  store i1 false, ptr %8, align 1
  br i1 %27, label %39, label %28

28:                                               ; preds = %16
  store ptr %26, ptr %3, align 8
  store i64 %25, ptr %4, align 8
  store i1 true, ptr %5, align 1
  store i64 %17, ptr %26, align 8
  %29 = getelementptr inbounds i8, ptr %26, i64 8
  %30 = icmp eq i64 %17, 0
  br i1 %30, label %38, label %31

31:                                               ; preds = %28
  %32 = getelementptr inbounds %"class.icu_77::UnicodeString", ptr %29, i64 %17
  br label %33

33:                                               ; preds = %35, %31
  %34 = phi ptr [ %29, %31 ], [ %36, %35 ]
  store ptr %29, ptr %6, align 8
  store ptr %34, ptr %7, align 8
  store i1 true, ptr %8, align 1
  invoke void @_ZN6icu_7713UnicodeStringC2Ev(ptr noundef nonnull align 8 dereferenceable(64) %34)
          to label %35 unwind label %41

35:                                               ; preds = %33
  %36 = getelementptr inbounds %"class.icu_77::UnicodeString", ptr %34, i64 1
  %37 = icmp eq ptr %36, %32
  br i1 %37, label %38, label %33

38:                                               ; preds = %28, %35
  br label %39

39:                                               ; preds = %38, %16
  %40 = phi ptr [ %29, %38 ], [ null, %16 ]
  ret ptr %40

41:                                               ; preds = %33
  %42 = landingpad { ptr, i32 }
          cleanup
  %43 = extractvalue { ptr, i32 } %42, 0
  store ptr %43, ptr %9, align 8
  %44 = extractvalue { ptr, i32 } %42, 1
  store i32 %44, ptr %10, align 4
  %45 = load i1, ptr %8, align 1
  br i1 %45, label %46, label %55

46:                                               ; preds = %41
  %47 = load ptr, ptr %6, align 8
  %48 = load ptr, ptr %7, align 8
  %49 = icmp eq ptr %47, %48
  br i1 %49, label %54, label %50

50:                                               ; preds = %50, %46
  %51 = phi ptr [ %48, %46 ], [ %52, %50 ]
  %52 = getelementptr inbounds %"class.icu_77::UnicodeString", ptr %51, i64 -1
  call void @_ZN6icu_7713UnicodeStringD1Ev(ptr noundef nonnull align 8 dereferenceable(64) %52) #14
  %53 = icmp eq ptr %52, %47
  br i1 %53, label %54, label %50

54:                                               ; preds = %50, %46
  br label %55

55:                                               ; preds = %54, %41
  %56 = load i1, ptr %5, align 1
  br i1 %56, label %57, label %59

57:                                               ; preds = %55
  %58 = load ptr, ptr %3, align 8
  call void @_ZN6icu_777UMemorydaEPv(ptr noundef %58) #14
  br label %59

59:                                               ; preds = %57, %55
  br label %60

60:                                               ; preds = %59
  %61 = load ptr, ptr %9, align 8
  %62 = load i32, ptr %10, align 4
  %63 = insertvalue { ptr, i32 } poison, ptr %61, 0
  %64 = insertvalue { ptr, i32 } %63, i32 %62, 1
  resume { ptr, i32 } %64
}

; Function Attrs: mustprogress uwtable
define void @_ZN6icu_7717DateFormatSymbols11assignArrayERPNS_13UnicodeStringERiPKS1_i(ptr noundef nonnull align 8 dereferenceable(8) %0, ptr noundef nonnull align 4 dereferenceable(4) %1, ptr noundef %2, i32 noundef %3) #1 align 2 {
  %5 = alloca ptr, align 8
  %6 = alloca ptr, align 8
  %7 = alloca ptr, align 8
  %8 = alloca i32, align 4
  %9 = alloca i32, align 4
  store ptr %0, ptr %5, align 8, !tbaa !133
  store ptr %1, ptr %6, align 8, !tbaa !20
  store ptr %2, ptr %7, align 8, !tbaa !50
  store i32 %3, ptr %8, align 4, !tbaa !14
  %10 = load ptr, ptr %7, align 8, !tbaa !50
  %11 = icmp eq ptr %10, null
  br i1 %11, label %12, label %15

12:                                               ; preds = %4
  %13 = load ptr, ptr %6, align 8, !tbaa !20
  store i32 0, ptr %13, align 4, !tbaa !14
  %14 = load ptr, ptr %5, align 8, !tbaa !133
  store ptr null, ptr %14, align 8, !tbaa !50
  br label %45

15:                                               ; preds = %4
  %16 = load i32, ptr %8, align 4, !tbaa !14
  %17 = load ptr, ptr %6, align 8, !tbaa !20
  store i32 %16, ptr %17, align 4, !tbaa !14
  %18 = load i32, ptr %8, align 4, !tbaa !14
  %19 = sext i32 %18 to i64
  %20 = call noundef ptr @_ZN6icu_77L21newUnicodeStringArrayEm(i64 noundef %19)
  %21 = load ptr, ptr %5, align 8, !tbaa !133
  store ptr %20, ptr %21, align 8, !tbaa !50
  %22 = load ptr, ptr %5, align 8, !tbaa !133
  %23 = load ptr, ptr %22, align 8, !tbaa !50
  %24 = icmp ne ptr %23, null
  br i1 %24, label %25, label %45

25:                                               ; preds = %15
  call void @llvm.lifetime.start.p0(i64 4, ptr %9) #14
  store i32 0, ptr %9, align 4, !tbaa !14
  br label %26

26:                                               ; preds = %41, %25
  %27 = load i32, ptr %9, align 4, !tbaa !14
  %28 = load i32, ptr %8, align 4, !tbaa !14
  %29 = icmp slt i32 %27, %28
  br i1 %29, label %30, label %44

30:                                               ; preds = %26
  %31 = load ptr, ptr %5, align 8, !tbaa !133
  %32 = load ptr, ptr %31, align 8, !tbaa !50
  %33 = load i32, ptr %9, align 4, !tbaa !14
  %34 = sext i32 %33 to i64
  %35 = getelementptr inbounds %"class.icu_77::UnicodeString", ptr %32, i64 %34
  %36 = load ptr, ptr %7, align 8, !tbaa !50
  %37 = load i32, ptr %9, align 4, !tbaa !14
  %38 = sext i32 %37 to i64
  %39 = getelementptr inbounds %"class.icu_77::UnicodeString", ptr %36, i64 %38
  %40 = call noundef nonnull align 8 dereferenceable(64) ptr @_ZN6icu_7713UnicodeString12fastCopyFromERKS0_(ptr noundef nonnull align 8 dereferenceable(64) %35, ptr noundef nonnull align 8 dereferenceable(64) %39)
  br label %41

41:                                               ; preds = %30
  %42 = load i32, ptr %9, align 4, !tbaa !14
  %43 = add nsw i32 %42, 1
  store i32 %43, ptr %9, align 4, !tbaa !14
  br label %26, !llvm.loop !134

44:                                               ; preds = %26
  call void @llvm.lifetime.end.p0(i64 4, ptr %9) #14
  br label %45

45:                                               ; preds = %12, %44, %15
  ret void
}