; Function Attrs: mustprogress uwtable
define void @_ZN6icu_7717DateFormatSymbols11assignArrayERPNS_13UnicodeStringERiPKS1_i(ptr noundef nonnull align 8 captures(none) dereferenceable(8) %0, ptr noundef nonnull writeonly align 4 captures(none) dereferenceable(4) initializes((0, 4)) %1, ptr noundef %2, i32 noundef %3) local_unnamed_addr #1 align 2 personality ptr @__gxx_personality_v0 {
  %5 = icmp eq ptr %2, null
  br i1 %5, label %6, label %7

6:                                                ; preds = %4
  store i32 0, ptr %1, align 4, !tbaa !12
  br label %.loopexit.sink.split

7:                                                ; preds = %4
  store i32 %3, ptr %1, align 4, !tbaa !12
  %8 = tail call i32 @llvm.umax.i32(i32 %3, i32 1)
  %9 = sext i32 %8 to i64
  %10 = icmp slt i32 %3, 0
  %11 = shl nsw i64 %9, 6
  %12 = or disjoint i64 %11, 8
  %13 = select i1 %10, i64 -1, i64 %12
  %14 = tail call noundef ptr @_ZN6icu_777UMemorynaEm(i64 noundef %13) #19
  %15 = icmp eq ptr %14, null
  br i1 %15, label %.loopexit.sink.split, label %16

16:                                               ; preds = %7
  store i64 %9, ptr %14, align 8
  %.ptr11.i = getelementptr inbounds nuw i8, ptr %14, i64 8
  %17 = getelementptr inbounds %"class.icu_77::UnicodeString", ptr %.ptr11.i, i64 %9
  br label %18

18:                                               ; preds = %18, %16
  %.idx.i = phi i64 [ 8, %16 ], [ %.add.i, %18 ]
  %.ptr.ptr.i = getelementptr inbounds nuw i8, ptr %14, i64 %.idx.i
  store ptr getelementptr inbounds nuw inrange(-16, 88) (i8, ptr @_ZTVN6icu_7713UnicodeStringE, i64 16), ptr %.ptr.ptr.i, align 8, !tbaa !15
  %19 = getelementptr inbounds nuw i8, ptr %.ptr.ptr.i, i64 8
  store i16 2, ptr %19, align 8, !tbaa !23
  %.add.i = add nuw nsw i64 %.idx.i, 64
  %.ptr10.i = getelementptr inbounds nuw i8, ptr %14, i64 %.add.i
  %20 = icmp eq ptr %.ptr10.i, %17
  br i1 %20, label %_ZN6icu_77L21newUnicodeStringArrayEm.exit, label %18

_ZN6icu_77L21newUnicodeStringArrayEm.exit:        ; preds = %18
  store ptr %.ptr11.i, ptr %0, align 8, !tbaa !127
  %21 = icmp sgt i32 %3, 0
  br i1 %21, label %.lr.ph.preheader, label %.loopexit

.lr.ph.preheader:                                 ; preds = %_ZN6icu_77L21newUnicodeStringArrayEm.exit
  %wide.trip.count = zext nneg i32 %3 to i64
  br label %.lr.ph

.lr.ph:                                           ; preds = %.lr.ph.preheader, %.lr.ph
  %indvars.iv = phi i64 [ 0, %.lr.ph.preheader ], [ %indvars.iv.next, %.lr.ph ]
  %22 = load ptr, ptr %0, align 8, !tbaa !127
  %23 = getelementptr inbounds nuw %"class.icu_77::UnicodeString", ptr %22, i64 %indvars.iv
  %24 = getelementptr inbounds nuw %"class.icu_77::UnicodeString", ptr %2, i64 %indvars.iv
  %25 = tail call noundef nonnull align 8 dereferenceable(64) ptr @_ZN6icu_7713UnicodeString12fastCopyFromERKS0_(ptr noundef nonnull align 8 dereferenceable(64) %23, ptr noundef nonnull align 8 dereferenceable(64) %24)
  %indvars.iv.next = add nuw nsw i64 %indvars.iv, 1
  %exitcond.not = icmp eq i64 %indvars.iv.next, %wide.trip.count
  br i1 %exitcond.not, label %.loopexit, label %.lr.ph, !llvm.loop !143

.loopexit.sink.split:                             ; preds = %7, %6
  store ptr null, ptr %0, align 8, !tbaa !127
  br label %.loopexit

.loopexit:                                        ; preds = %.lr.ph, %.loopexit.sink.split, %_ZN6icu_77L21newUnicodeStringArrayEm.exit
  ret void
}